target datalayout = "e-m:e-p270:32:32-p271:32:32-p272:64:64-i64:64-i128:128-f80:128-n8:16:32:64-S128"
target triple = "x86_64-pc-linux-gnu"

%struct.BF_ctx = type { [4 x [256 x i32]], [18 x i32] }
%struct.anon = type { [30 x i8], [63 x i8] }

@.str = private unnamed_addr constant [10 x i8] c"8b \D0\C1\D2\CF\CC\D8\00", align 1
@.str.1 = private unnamed_addr constant [30 x i8] c"$2a$00$abcdefghijklmnopqrstuu\00", align 1
@php_crypt_blowfish_rn.test_hashes = internal constant [2 x ptr] [ptr @.str.2, ptr @.str.3], align 16
@flags_by_subtype = internal constant [26 x i8] c"\02\04\00\00\00\00\00\00\00\00\00\00\00\00\00\00\00\00\00\00\00\00\00\01\04\00", align 16
@.str.4 = private unnamed_addr constant [12 x i8] c"\FF\A334\FF\FF\FF\A3345\00", align 1

; Function Attrs: nounwind uwtable
define internal void @BF_set_key(ptr noundef %0, ptr noundef %1, ptr noundef %2, i8 noundef zeroext %3) #0 {
  %5 = alloca ptr, align 8
  %6 = alloca ptr, align 8
  %7 = alloca ptr, align 8
  %8 = alloca i8, align 1
  %9 = alloca ptr, align 8
  %10 = alloca i32, align 4
  %11 = alloca i32, align 4
  %12 = alloca i32, align 4
  %13 = alloca i32, align 4
  %14 = alloca i32, align 4
  %15 = alloca i32, align 4
  %16 = alloca [2 x i32], align 4
  store ptr %0, ptr %5, align 8
  store ptr %1, ptr %6, align 8
  store ptr %2, ptr %7, align 8
  store i8 %3, ptr %8, align 1
  %17 = load ptr, ptr %5, align 8
  store ptr %17, ptr %9, align 8
  %18 = load i8, ptr %8, align 1
  %19 = zext i8 %18 to i32
  %20 = and i32 %19, 1
  store i32 %20, ptr %10, align 4
  %21 = load i8, ptr %8, align 1
  %22 = zext i8 %21 to i32
  %23 = and i32 %22, 2
  %24 = shl i32 %23, 15
  store i32 %24, ptr %13, align 4
  store i32 0, ptr %15, align 4
  store i32 0, ptr %14, align 4
  store i32 0, ptr %11, align 4
  br label %25

25:                                               ; preds = %103, %4
  %26 = load i32, ptr %11, align 4
  %27 = icmp ult i32 %26, 18
  br i1 %27, label %28, label %106

28:                                               ; preds = %25
  %29 = getelementptr inbounds [2 x i32], ptr %16, i64 0, i64 1
  store i32 0, ptr %29, align 4
  %30 = getelementptr inbounds [2 x i32], ptr %16, i64 0, i64 0
  store i32 0, ptr %30, align 4
  store i32 0, ptr %12, align 4
  br label %31

31:                                               ; preds = %71, %28
  %32 = load i32, ptr %12, align 4
  %33 = icmp ult i32 %32, 4
  br i1 %33, label %34, label %74

34:                                               ; preds = %31
  %35 = getelementptr inbounds [2 x i32], ptr %16, i64 0, i64 0
  %36 = load i32, ptr %35, align 4
  %37 = shl i32 %36, 8
  store i32 %37, ptr %35, align 4
  %38 = load ptr, ptr %9, align 8
  %39 = load i8, ptr %38, align 1
  %40 = zext i8 %39 to i32
  %41 = getelementptr inbounds [2 x i32], ptr %16, i64 0, i64 0
  %42 = load i32, ptr %41, align 4
  %43 = or i32 %42, %40
  store i32 %43, ptr %41, align 4
  %44 = getelementptr inbounds [2 x i32], ptr %16, i64 0, i64 1
  %45 = load i32, ptr %44, align 4
  %46 = shl i32 %45, 8
  store i32 %46, ptr %44, align 4
  %47 = load ptr, ptr %9, align 8
  %48 = load i8, ptr %47, align 1
  %49 = sext i8 %48 to i32
  %50 = getelementptr inbounds [2 x i32], ptr %16, i64 0, i64 1
  %51 = load i32, ptr %50, align 4
  %52 = or i32 %51, %49
  store i32 %52, ptr %50, align 4
  %53 = load i32, ptr %12, align 4
  %54 = icmp ne i32 %53, 0
  br i1 %54, label %55, label %61

55:                                               ; preds = %34
  %56 = getelementptr inbounds [2 x i32], ptr %16, i64 0, i64 1
  %57 = load i32, ptr %56, align 4
  %58 = and i32 %57, 128
  %59 = load i32, ptr %14, align 4
  %60 = or i32 %59, %58
  store i32 %60, ptr %14, align 4
  br label %61

61:                                               ; preds = %55, %34
  %62 = load ptr, ptr %9, align 8
  %63 = load i8, ptr %62, align 1
  %64 = icmp ne i8 %63, 0
  br i1 %64, label %67, label %65

65:                                               ; preds = %61
  %66 = load ptr, ptr %5, align 8
  store ptr %66, ptr %9, align 8
  br label %70

67:                                               ; preds = %61
  %68 = load ptr, ptr %9, align 8
  %69 = getelementptr inbounds i8, ptr %68, i32 1
  store ptr %69, ptr %9, align 8
  br label %70

70:                                               ; preds = %67, %65
  br label %71

71:                                               ; preds = %70
  %72 = load i32, ptr %12, align 4
  %73 = add i32 %72, 1
  store i32 %73, ptr %12, align 4
  br label %31

74:                                               ; preds = %31
  %75 = getelementptr inbounds [2 x i32], ptr %16, i64 0, i64 0
  %76 = load i32, ptr %75, align 4
  %77 = getelementptr inbounds [2 x i32], ptr %16, i64 0, i64 1
  %78 = load i32, ptr %77, align 4
  %79 = xor i32 %76, %78
  %80 = load i32, ptr %15, align 4
  %81 = or i32 %80, %79
  store i32 %81, ptr %15, align 4
  %82 = load i32, ptr %10, align 4
  %83 = zext i32 %82 to i64
  %84 = getelementptr inbounds [2 x i32], ptr %16, i64 0, i64 %83
  %85 = load i32, ptr %84, align 4
  %86 = load ptr, ptr %6, align 8
  %87 = load i32, ptr %11, align 4
  %88 = zext i32 %87 to i64
  %89 = getelementptr inbounds i32, ptr %86, i64 %88
  store i32 %85, ptr %89, align 4
  %90 = load i32, ptr %11, align 4
  %91 = zext i32 %90 to i64
  %92 = getelementptr inbounds [18 x i32], ptr getelementptr inbounds (%struct.BF_ctx, ptr @BF_init_state, i32 0, i32 1), i64 0, i64 %91
  %93 = load i32, ptr %92, align 4
  %94 = load i32, ptr %10, align 4
  %95 = zext i32 %94 to i64
  %96 = getelementptr inbounds [2 x i32], ptr %16, i64 0, i64 %95
  %97 = load i32, ptr %96, align 4
  %98 = xor i32 %93, %97
  %99 = load ptr, ptr %7, align 8
  %100 = load i32, ptr %11, align 4
  %101 = zext i32 %100 to i64
  %102 = getelementptr inbounds i32, ptr %99, i64 %101
  store i32 %98, ptr %102, align 4
  br label %103

103:                                              ; preds = %74
  %104 = load i32, ptr %11, align 4
  %105 = add i32 %104, 1
  store i32 %105, ptr %11, align 4
  br label %25

106:                                              ; preds = %25
  %107 = load i32, ptr %15, align 4
  %108 = lshr i32 %107, 16
  %109 = load i32, ptr %15, align 4
  %110 = or i32 %109, %108
  store i32 %110, ptr %15, align 4
  %111 = load i32, ptr %15, align 4
  %112 = and i32 %111, 65535
  store i32 %112, ptr %15, align 4
  %113 = load i32, ptr %15, align 4
  %114 = add i32 %113, 65535
  store i32 %114, ptr %15, align 4
  %115 = load i32, ptr %14, align 4
  %116 = shl i32 %115, 9
  store i32 %116, ptr %14, align 4
  %117 = load i32, ptr %15, align 4
  %118 = xor i32 %117, -1
  %119 = load i32, ptr %13, align 4
  %120 = and i32 %118, %119
  %121 = load i32, ptr %14, align 4
  %122 = and i32 %121, %120
  store i32 %122, ptr %14, align 4
  %123 = load i32, ptr %14, align 4
  %124 = load ptr, ptr %7, align 8
  %125 = getelementptr inbounds i32, ptr %124, i64 0
  %126 = load i32, ptr %125, align 4
  %127 = xor i32 %126, %123
  store i32 %127, ptr %125, align 4
  ret void
}

; Function Attrs: nounwind uwtable
define internal i32 @_crypt_output_magic(ptr noundef %0, ptr noundef %1, i32 noundef %2) #0 {
  %4 = alloca i32, align 4
  %5 = alloca ptr, align 8
  %6 = alloca ptr, align 8
  %7 = alloca i32, align 4
  store ptr %0, ptr %5, align 8
  store ptr %1, ptr %6, align 8
  store i32 %2, ptr %7, align 4
  %8 = load i32, ptr %7, align 4
  %9 = icmp slt i32 %8, 3
  br i1 %9, label %10, label %11

10:                                               ; preds = %3
  store i32 -1, ptr %4, align 4
  br label %33

11:                                               ; preds = %3
  %12 = load ptr, ptr %6, align 8
  %13 = getelementptr inbounds i8, ptr %12, i64 0
  store i8 42, ptr %13, align 1
  %14 = load ptr, ptr %6, align 8
  %15 = getelementptr inbounds i8, ptr %14, i64 1
  store i8 48, ptr %15, align 1
  %16 = load ptr, ptr %6, align 8
  %17 = getelementptr inbounds i8, ptr %16, i64 2
  store i8 0, ptr %17, align 1
  %18 = load ptr, ptr %5, align 8
  %19 = getelementptr inbounds i8, ptr %18, i64 0
  %20 = load i8, ptr %19, align 1
  %21 = sext i8 %20 to i32
  %22 = icmp eq i32 %21, 42
  br i1 %22, label %23, label %32

23:                                               ; preds = %11
  %24 = load ptr, ptr %5, align 8
  %25 = getelementptr inbounds i8, ptr %24, i64 1
  %26 = load i8, ptr %25, align 1
  %27 = sext i8 %26 to i32
  %28 = icmp eq i32 %27, 48
  br i1 %28, label %29, label %32

29:                                               ; preds = %23
  %30 = load ptr, ptr %6, align 8
  %31 = getelementptr inbounds i8, ptr %30, i64 1
  store i8 49, ptr %31, align 1
  br label %32

32:                                               ; preds = %29, %23, %11
  store i32 0, ptr %4, align 4
  br label %33

33:                                               ; preds = %32, %10
  %34 = load i32, ptr %4, align 4
  ret i32 %34
}

; Function Attrs: nounwind uwtable
define hidden ptr @php_crypt_blowfish_rn(ptr noundef %0, ptr noundef %1, ptr noundef %2, i32 noundef %3) #0 {
  %5 = alloca ptr, align 8
  %6 = alloca ptr, align 8
  %7 = alloca ptr, align 8
  %8 = alloca ptr, align 8
  %9 = alloca i32, align 4
  %10 = alloca ptr, align 8
  %11 = alloca ptr, align 8
  %12 = alloca ptr, align 8
  %13 = alloca ptr, align 8
  %14 = alloca ptr, align 8
  %15 = alloca i32, align 4
  %16 = alloca i32, align 4
  %17 = alloca %struct.anon, align 1
  %18 = alloca i32, align 4
  %19 = alloca ptr, align 8
  %20 = alloca [18 x i32], align 16
  %21 = alloca [18 x i32], align 16
  %22 = alloca [18 x i32], align 16
  %23 = alloca [18 x i32], align 16
  store ptr %0, ptr %6, align 8
  store ptr %1, ptr %7, align 8
  store ptr %2, ptr %8, align 8
  store i32 %3, ptr %9, align 4
  store ptr @.str, ptr %10, align 8
  store ptr @.str.1, ptr %11, align 8
  %24 = load ptr, ptr @php_crypt_blowfish_rn.test_hashes, align 16
  store ptr %24, ptr %12, align 8
  %25 = load ptr, ptr %7, align 8
  %26 = load ptr, ptr %8, align 8
  %27 = load i32, ptr %9, align 4
  %28 = call i32 @_crypt_output_magic(ptr noundef %25, ptr noundef %26, i32 noundef %27)
  %29 = load ptr, ptr %6, align 8
  %30 = load ptr, ptr %7, align 8
  %31 = load ptr, ptr %8, align 8
  %32 = load i32, ptr %9, align 4
  %33 = call ptr @BF_crypt(ptr noundef %29, ptr noundef %30, ptr noundef %31, i32 noundef %32, i32 noundef 16)
  store ptr %33, ptr %13, align 8
  %34 = call ptr @__errno_location() #5
  %35 = load i32, ptr %34, align 4
  store i32 %35, ptr %15, align 4
  %36 = getelementptr inbounds %struct.anon, ptr %17, i32 0, i32 0
  %37 = getelementptr inbounds [30 x i8], ptr %36, i64 0, i64 0
  %38 = load ptr, ptr %11, align 8
  call void @llvm.memcpy.p0.p0.i64(ptr align 1 %37, ptr align 1 %38, i64 30, i1 false)
  %39 = load ptr, ptr %13, align 8
  %40 = icmp ne ptr %39, null
  br i1 %40, label %41, label %61

41:                                               ; preds = %4
  %42 = load ptr, ptr %7, align 8
  %43 = getelementptr inbounds i8, ptr %42, i64 2
  %44 = load i8, ptr %43, align 1
  %45 = zext i8 %44 to i32
  %46 = sub i32 %45, 97
  %47 = zext i32 %46 to i64
  %48 = getelementptr inbounds [26 x i8], ptr @flags_by_subtype, i64 0, i64 %47
  %49 = load i8, ptr %48, align 1
  %50 = zext i8 %49 to i32
  store i32 %50, ptr %18, align 4
  %51 = load i32, ptr %18, align 4
  %52 = and i32 %51, 1
  %53 = zext i32 %52 to i64
  %54 = getelementptr inbounds [2 x ptr], ptr @php_crypt_blowfish_rn.test_hashes, i64 0, i64 %53
  %55 = load ptr, ptr %54, align 8
  store ptr %55, ptr %12, align 8
  %56 = load ptr, ptr %7, align 8
  %57 = getelementptr inbounds i8, ptr %56, i64 2
  %58 = load i8, ptr %57, align 1
  %59 = getelementptr inbounds %struct.anon, ptr %17, i32 0, i32 0
  %60 = getelementptr inbounds [30 x i8], ptr %59, i64 0, i64 2
  store i8 %58, ptr %60, align 1
  br label %61

61:                                               ; preds = %41, %4
  %62 = getelementptr inbounds %struct.anon, ptr %17, i32 0, i32 1
  %63 = getelementptr inbounds [63 x i8], ptr %62, i64 0, i64 0
  call void @llvm.memset.p0.i64(ptr align 1 %63, i8 85, i64 63, i1 false)
  %64 = getelementptr inbounds %struct.anon, ptr %17, i32 0, i32 1
  %65 = getelementptr inbounds [63 x i8], ptr %64, i64 0, i64 62
  store i8 0, ptr %65, align 1
  %66 = load ptr, ptr %10, align 8
  %67 = getelementptr inbounds %struct.anon, ptr %17, i32 0, i32 0
  %68 = getelementptr inbounds [30 x i8], ptr %67, i64 0, i64 0
  %69 = getelementptr inbounds %struct.anon, ptr %17, i32 0, i32 1
  %70 = getelementptr inbounds [63 x i8], ptr %69, i64 0, i64 0
  %71 = call ptr @BF_crypt(ptr noundef %66, ptr noundef %68, ptr noundef %70, i32 noundef 61, i32 noundef 1)
  store ptr %71, ptr %14, align 8
  %72 = load ptr, ptr %14, align 8
  %73 = getelementptr inbounds %struct.anon, ptr %17, i32 0, i32 1
  %74 = getelementptr inbounds [63 x i8], ptr %73, i64 0, i64 0
  %75 = icmp eq ptr %72, %74
  br i1 %75, label %76, label %89

76:                                               ; preds = %61
  %77 = load ptr, ptr %14, align 8
  %78 = getelementptr inbounds %struct.anon, ptr %17, i32 0, i32 0
  %79 = getelementptr inbounds [30 x i8], ptr %78, i64 0, i64 0
  %80 = call i32 @memcmp(ptr noundef %77, ptr noundef %79, i64 noundef 29) #6
  %81 = icmp ne i32 %80, 0
  br i1 %81, label %89, label %82

82:                                               ; preds = %76
  %83 = load ptr, ptr %14, align 8
  %84 = getelementptr inbounds i8, ptr %83, i64 29
  %85 = load ptr, ptr %12, align 8
  %86 = call i32 @memcmp(ptr noundef %84, ptr noundef %85, i64 noundef 34) #6
  %87 = icmp ne i32 %86, 0
  %88 = xor i1 %87, true
  br label %89

89:                                               ; preds = %82, %76, %61
  %90 = phi i1 [ false, %76 ], [ false, %61 ], [ %88, %82 ]
  %91 = zext i1 %90 to i32
  store i32 %91, ptr %16, align 4
  store ptr @.str.4, ptr %19, align 8
  %92 = load ptr, ptr %19, align 8
  %93 = getelementptr inbounds [18 x i32], ptr %20, i64 0, i64 0
  %94 = getelementptr inbounds [18 x i32], ptr %21, i64 0, i64 0
  call void @BF_set_key(ptr noundef %92, ptr noundef %93, ptr noundef %94, i8 noundef zeroext 2)
  %95 = load ptr, ptr %19, align 8
  %96 = getelementptr inbounds [18 x i32], ptr %22, i64 0, i64 0
  %97 = getelementptr inbounds [18 x i32], ptr %23, i64 0, i64 0
  call void @BF_set_key(ptr noundef %95, ptr noundef %96, ptr noundef %97, i8 noundef zeroext 4)
  %98 = getelementptr inbounds [18 x i32], ptr %21, i64 0, i64 0
  %99 = load i32, ptr %98, align 16
  %100 = xor i32 %99, 65536
  store i32 %100, ptr %98, align 16
  %101 = load i32, ptr %16, align 4
  %102 = icmp ne i32 %101, 0
  br i1 %102, label %103, label %122

103:                                              ; preds = %89
  %104 = getelementptr inbounds [18 x i32], ptr %21, i64 0, i64 0
  %105 = load i32, ptr %104, align 16
  %106 = icmp eq i32 %105, -610510404
  br i1 %106, label %107, label %122

107:                                              ; preds = %103
  %108 = getelementptr inbounds [18 x i32], ptr %22, i64 0, i64 17
  %109 = load i32, ptr %108, align 4
  %110 = icmp eq i32 %109, 859059456
  br i1 %110, label %111, label %122

111:                                              ; preds = %107
  %112 = getelementptr inbounds [18 x i32], ptr %20, i64 0, i64 0
  %113 = getelementptr inbounds [18 x i32], ptr %22, i64 0, i64 0
  %114 = call i32 @memcmp(ptr noundef %112, ptr noundef %113, i64 noundef 72) #6
  %115 = icmp ne i32 %114, 0
  br i1 %115, label %122, label %116

116:                                              ; preds = %111
  %117 = getelementptr inbounds [18 x i32], ptr %21, i64 0, i64 0
  %118 = getelementptr inbounds [18 x i32], ptr %23, i64 0, i64 0
  %119 = call i32 @memcmp(ptr noundef %117, ptr noundef %118, i64 noundef 72) #6
  %120 = icmp ne i32 %119, 0
  %121 = xor i1 %120, true
  br label %122

122:                                              ; preds = %116, %111, %107, %103, %89
  %123 = phi i1 [ false, %111 ], [ false, %107 ], [ false, %103 ], [ false, %89 ], [ %121, %116 ]
  %124 = zext i1 %123 to i32
  store i32 %124, ptr %16, align 4
  %125 = load i32, ptr %15, align 4
  %126 = call ptr @__errno_location() #5
  store i32 %125, ptr %126, align 4
  %127 = load i32, ptr %16, align 4
  %128 = icmp ne i32 %127, 0
  br i1 %128, label %129, label %131

129:                                              ; preds = %122
  %130 = load ptr, ptr %13, align 8
  store ptr %130, ptr %5, align 8
  br label %137

131:                                              ; preds = %122
  %132 = load ptr, ptr %7, align 8
  %133 = load ptr, ptr %8, align 8
  %134 = load i32, ptr %9, align 4
  %135 = call i32 @_crypt_output_magic(ptr noundef %132, ptr noundef %133, i32 noundef %134)
  %136 = call ptr @__errno_location() #5
  store i32 22, ptr %136, align 4
  store ptr null, ptr %5, align 8
  br label %137

137:                                              ; preds = %131, %129
  %138 = load ptr, ptr %5, align 8
  ret ptr %138
}