; Function Attrs: nofree nounwind memory(readwrite, inaccessiblemem: none) uwtable
define hidden noundef ptr @php_crypt_blowfish_rn(ptr nocapture noundef readonly %0, ptr nocapture noundef readonly %1, ptr noundef %2, i32 noundef %3) local_unnamed_addr #0 {
  %5 = alloca %struct.anon, align 1
  %6 = alloca [18 x i32], align 16
  %7 = alloca [18 x i32], align 16
  %8 = alloca [18 x i32], align 16
  %9 = alloca [18 x i32], align 16
  %10 = icmp slt i32 %3, 3
  br i1 %10, label %_crypt_output_magic.exit, label %11

11:                                               ; preds = %4
  store i8 42, ptr %2, align 1
  %12 = getelementptr inbounds i8, ptr %2, i64 1
  store i8 48, ptr %12, align 1
  %13 = getelementptr inbounds i8, ptr %2, i64 2
  store i8 0, ptr %13, align 1
  %14 = load i8, ptr %1, align 1
  %15 = icmp eq i8 %14, 42
  br i1 %15, label %16, label %_crypt_output_magic.exit

16:                                               ; preds = %11
  %17 = getelementptr inbounds i8, ptr %1, i64 1
  %18 = load i8, ptr %17, align 1
  %19 = icmp eq i8 %18, 48
  br i1 %19, label %20, label %_crypt_output_magic.exit

20:                                               ; preds = %16
  store i8 49, ptr %12, align 1
  br label %_crypt_output_magic.exit

_crypt_output_magic.exit:                         ; preds = %4, %11, %16, %20
  %21 = tail call fastcc ptr @BF_crypt(ptr noundef %0, ptr noundef %1, ptr noundef %2, i32 noundef %3, i32 noundef 16)
  %22 = tail call ptr @__errno_location() #9
  %23 = load i32, ptr %22, align 4
  call void @llvm.memcpy.p0.p0.i64(ptr noundef nonnull align 1 dereferenceable(30) %5, ptr noundef nonnull align 1 dereferenceable(30) @.str.1, i64 30, i1 false)
  %.not = icmp eq ptr %21, null
  br i1 %.not, label %37, label %24

24:                                               ; preds = %_crypt_output_magic.exit
  %25 = getelementptr inbounds i8, ptr %1, i64 2
  %26 = load i8, ptr %25, align 1
  %27 = zext i8 %26 to i64
  %28 = add nuw nsw i64 %27, 4294967199
  %29 = and i64 %28, 4294967295
  %30 = getelementptr inbounds [26 x i8], ptr @flags_by_subtype, i64 0, i64 %29
  %31 = load i8, ptr %30, align 1
  %32 = and i8 %31, 1
  %33 = zext nneg i8 %32 to i64
  %34 = getelementptr inbounds [2 x ptr], ptr @php_crypt_blowfish_rn.test_hashes, i64 0, i64 %33
  %35 = load ptr, ptr %34, align 8
  %36 = getelementptr inbounds i8, ptr %5, i64 2
  store i8 %26, ptr %36, align 1
  br label %37

37:                                               ; preds = %24, %_crypt_output_magic.exit
  %.031 = phi ptr [ %35, %24 ], [ @.str.2, %_crypt_output_magic.exit ]
  %38 = getelementptr inbounds i8, ptr %5, i64 30
  call void @llvm.memset.p0.i64(ptr noundef nonnull align 1 dereferenceable(63) %38, i8 85, i64 62, i1 false)
  %39 = getelementptr inbounds i8, ptr %5, i64 92
  store i8 0, ptr %39, align 1
  %40 = call fastcc ptr @BF_crypt(ptr noundef nonnull @.str, ptr noundef nonnull %5, ptr noundef nonnull %38, i32 noundef 61, i32 noundef 1)
  %41 = icmp eq ptr %40, %38
  br i1 %41, label %42, label %45

42:                                               ; preds = %37
  %bcmp = call i32 @bcmp(ptr noundef nonnull dereferenceable(29) %38, ptr noundef nonnull dereferenceable(29) %5, i64 29)
  %.not33 = icmp eq i32 %bcmp, 0
  br i1 %.not33, label %43, label %45

43:                                               ; preds = %42
  %44 = getelementptr inbounds i8, ptr %5, i64 59
  %bcmp34 = call i32 @bcmp(ptr noundef nonnull dereferenceable(34) %44, ptr noundef nonnull dereferenceable(34) %.031, i64 34)
  %.not35 = icmp eq i32 %bcmp34, 0
  br label %45

45:                                               ; preds = %43, %42, %37
  %46 = phi i1 [ false, %42 ], [ false, %37 ], [ %.not35, %43 ]
  br label %47

47:                                               ; preds = %62, %45
  %indvars.iv.i = phi i64 [ 0, %45 ], [ %indvars.iv.next.i, %62 ]
  %.045.i = phi i32 [ 0, %45 ], [ %64, %62 ]
  %.03144.i = phi i32 [ 0, %45 ], [ %.2.i, %62 ]
  %.03243.i = phi ptr [ @.str.4, %45 ], [ %.234.i, %62 ]
  br label %48

48:                                               ; preds = %48, %47
  %.141.i = phi i32 [ %.03144.i, %47 ], [ %.2.i, %48 ]
  %.13340.i = phi ptr [ %.03243.i, %47 ], [ %.234.i, %48 ]
  %.03539.i = phi i32 [ 0, %47 ], [ %61, %48 ]
  %49 = phi i32 [ 0, %47 ], [ %54, %48 ]
  %50 = phi i32 [ 0, %47 ], [ %57, %48 ]
  %51 = shl i32 %49, 8
  %52 = load i8, ptr %.13340.i, align 1
  %53 = zext i8 %52 to i32
  %54 = or disjoint i32 %51, %53
  %55 = shl i32 %50, 8
  %56 = sext i8 %52 to i32
  %57 = or i32 %55, %56
  %.not.i = icmp eq i32 %.03539.i, 0
  %58 = and i32 %56, 128
  %59 = select i1 %.not.i, i32 0, i32 %58
  %.2.i = or i32 %59, %.141.i
  %.not37.i = icmp eq i8 %52, 0
  %60 = getelementptr inbounds i8, ptr %.13340.i, i64 1
  %.234.i = select i1 %.not37.i, ptr @.str.4, ptr %60
  %61 = add nuw nsw i32 %.03539.i, 1
  %exitcond.not.i = icmp eq i32 %61, 4
  br i1 %exitcond.not.i, label %62, label %48

62:                                               ; preds = %48
  %63 = xor i32 %57, %54
  %64 = or i32 %63, %.045.i
  %65 = getelementptr inbounds i32, ptr %6, i64 %indvars.iv.i
  store i32 %54, ptr %65, align 4
  %66 = getelementptr inbounds %struct.BF_ctx, ptr @BF_init_state, i64 0, i32 1, i64 %indvars.iv.i
  %67 = load i32, ptr %66, align 4
  %68 = xor i32 %67, %54
  %69 = getelementptr inbounds i32, ptr %7, i64 %indvars.iv.i
  store i32 %68, ptr %69, align 4
  %indvars.iv.next.i = add nuw nsw i64 %indvars.iv.i, 1
  %exitcond47.not.i = icmp eq i64 %indvars.iv.next.i, 18
  br i1 %exitcond47.not.i, label %BF_set_key.exit, label %47

BF_set_key.exit:                                  ; preds = %62
  %70 = lshr i32 %64, 16
  %.0.masked.i = and i32 %64, 65535
  %71 = or i32 %.0.masked.i, %70
  %72 = shl nuw nsw i32 %.2.i, 9
  %73 = sub nuw nsw i32 65536, %71
  %74 = and i32 %72, 65536
  %75 = and i32 %74, %73
  %76 = load i32, ptr %7, align 16
  %77 = xor i32 %76, %75
  br label %78

78:                                               ; preds = %87, %BF_set_key.exit
  %indvars.iv.i40 = phi i64 [ 0, %BF_set_key.exit ], [ %indvars.iv.next.i52, %87 ]
  %.03243.i43 = phi ptr [ @.str.4, %BF_set_key.exit ], [ %.234.i50, %87 ]
  br label %79

79:                                               ; preds = %79, %78
  %.13340.i45 = phi ptr [ %.03243.i43, %78 ], [ %.234.i50, %79 ]
  %.03539.i46 = phi i32 [ 0, %78 ], [ %86, %79 ]
  %80 = phi i32 [ 0, %78 ], [ %84, %79 ]
  %81 = shl i32 %80, 8
  %82 = load i8, ptr %.13340.i45, align 1
  %83 = zext i8 %82 to i32
  %84 = or disjoint i32 %81, %83
  %.not37.i49 = icmp eq i8 %82, 0
  %85 = getelementptr inbounds i8, ptr %.13340.i45, i64 1
  %.234.i50 = select i1 %.not37.i49, ptr @.str.4, ptr %85
  %86 = add nuw nsw i32 %.03539.i46, 1
  %exitcond.not.i51 = icmp eq i32 %86, 4
  br i1 %exitcond.not.i51, label %87, label %79

87:                                               ; preds = %79
  %88 = getelementptr inbounds i32, ptr %8, i64 %indvars.iv.i40
  store i32 %84, ptr %88, align 4
  %89 = getelementptr inbounds %struct.BF_ctx, ptr @BF_init_state, i64 0, i32 1, i64 %indvars.iv.i40
  %90 = load i32, ptr %89, align 4
  %91 = xor i32 %90, %84
  %92 = getelementptr inbounds i32, ptr %9, i64 %indvars.iv.i40
  store i32 %91, ptr %92, align 4
  %indvars.iv.next.i52 = add nuw nsw i64 %indvars.iv.i40, 1
  %exitcond47.not.i53 = icmp eq i64 %indvars.iv.next.i52, 18
  br i1 %exitcond47.not.i53, label %BF_set_key.exit55, label %78

BF_set_key.exit55:                                ; preds = %87
  %93 = xor i32 %77, 65536
  store i32 %93, ptr %7, align 16
  %94 = icmp eq i32 %93, -610510404
  %or.cond = select i1 %46, i1 %94, i1 false
  %95 = getelementptr inbounds i8, ptr %8, i64 68
  %96 = load i32, ptr %95, align 4
  %97 = icmp eq i32 %96, 859059456
  %or.cond5 = select i1 %or.cond, i1 %97, i1 false
  br i1 %or.cond5, label %98, label %.critedge

98:                                               ; preds = %BF_set_key.exit55
  %bcmp36 = call i32 @bcmp(ptr noundef nonnull dereferenceable(72) %6, ptr noundef nonnull dereferenceable(72) %8, i64 72)
  %.not37 = icmp eq i32 %bcmp36, 0
  br i1 %.not37, label %99, label %.critedge

99:                                               ; preds = %98
  %bcmp38 = call i32 @bcmp(ptr noundef nonnull dereferenceable(72) %7, ptr noundef nonnull dereferenceable(72) %9, i64 72)
  %.not39 = icmp eq i32 %bcmp38, 0
  store i32 %23, ptr %22, align 4
  br i1 %.not39, label %111, label %100

.critedge:                                        ; preds = %BF_set_key.exit55, %98
  store i32 %23, ptr %22, align 4
  br label %100

100:                                              ; preds = %.critedge, %99
  br i1 %10, label %_crypt_output_magic.exit57, label %101

101:                                              ; preds = %100
  store i8 42, ptr %2, align 1
  %102 = getelementptr inbounds i8, ptr %2, i64 1
  store i8 48, ptr %102, align 1
  %103 = getelementptr inbounds i8, ptr %2, i64 2
  store i8 0, ptr %103, align 1
  %104 = load i8, ptr %1, align 1
  %105 = icmp eq i8 %104, 42
  br i1 %105, label %106, label %_crypt_output_magic.exit57

106:                                              ; preds = %101
  %107 = getelementptr inbounds i8, ptr %1, i64 1
  %108 = load i8, ptr %107, align 1
  %109 = icmp eq i8 %108, 48
  br i1 %109, label %110, label %_crypt_output_magic.exit57

110:                                              ; preds = %106
  store i8 49, ptr %102, align 1
  br label %_crypt_output_magic.exit57

_crypt_output_magic.exit57:                       ; preds = %100, %101, %106, %110
  store i32 22, ptr %22, align 4
  br label %111

111:                                              ; preds = %99, %_crypt_output_magic.exit57
  %.0 = phi ptr [ null, %_crypt_output_magic.exit57 ], [ %21, %99 ]
  ret ptr %.0
}